target datalayout = "e-m:e-p270:32:32-p271:32:32-p272:64:64-i64:64-i128:128-f80:128-n8:16:32:64-S128"
target triple = "x86_64-unknown-linux-gnu"

%struct.HIDState = type { %union.anon, i32, i32, i32, i32, i8, i8, ptr, ptr, ptr }
%union.anon = type { %struct.HIDMouseState }
%struct.HIDMouseState = type { [16 x %struct.HIDPointerEvent], i32 }
%struct.HIDPointerEvent = type { i32, i32, i32, i32 }

; Function Attrs: nounwind sspstrong uwtable
define internal i32 @int_clamp(i32 noundef %val, i32 noundef %vmin, i32 noundef %vmax) #0 {
entry:
  %retval = alloca i32, align 4
  %val.addr = alloca i32, align 4
  %vmin.addr = alloca i32, align 4
  %vmax.addr = alloca i32, align 4
  store i32 %val, ptr %val.addr, align 4
  store i32 %vmin, ptr %vmin.addr, align 4
  store i32 %vmax, ptr %vmax.addr, align 4
  %0 = load i32, ptr %val.addr, align 4
  %1 = load i32, ptr %vmin.addr, align 4
  %cmp = icmp slt i32 %0, %1
  br i1 %cmp, label %if.then, label %if.else

if.then:                                          ; preds = %entry
  %2 = load i32, ptr %vmin.addr, align 4
  store i32 %2, ptr %retval, align 4
  br label %return

if.else:                                          ; preds = %entry
  %3 = load i32, ptr %val.addr, align 4
  %4 = load i32, ptr %vmax.addr, align 4
  %cmp1 = icmp sgt i32 %3, %4
  br i1 %cmp1, label %if.then2, label %if.else3

if.then2:                                         ; preds = %if.else
  %5 = load i32, ptr %vmax.addr, align 4
  store i32 %5, ptr %retval, align 4
  br label %return

if.else3:                                         ; preds = %if.else
  %6 = load i32, ptr %val.addr, align 4
  store i32 %6, ptr %retval, align 4
  br label %return

return:                                           ; preds = %if.else3, %if.then2, %if.then
  %7 = load i32, ptr %retval, align 4
  ret i32 %7
}

; Function Attrs: nounwind sspstrong uwtable
define dso_local void @hid_pointer_activate(ptr noundef %hs) #0 {
entry:
  %hs.addr = alloca ptr, align 8
  store ptr %hs, ptr %hs.addr, align 8
  %0 = load ptr, ptr %hs.addr, align 8
  %1 = getelementptr inbounds %struct.HIDState, ptr %0, i32 0, i32 0
  %mouse_grabbed = getelementptr inbounds %struct.HIDMouseState, ptr %1, i32 0, i32 1
  %2 = load i32, ptr %mouse_grabbed, align 8
  %tobool = icmp ne i32 %2, 0
  br i1 %tobool, label %if.end, label %if.then

if.then:                                          ; preds = %entry
  %3 = load ptr, ptr %hs.addr, align 8
  %s = getelementptr inbounds %struct.HIDState, ptr %3, i32 0, i32 9
  %4 = load ptr, ptr %s, align 8
  call void @qemu_input_handler_activate(ptr noundef %4)
  %5 = load ptr, ptr %hs.addr, align 8
  %6 = getelementptr inbounds %struct.HIDState, ptr %5, i32 0, i32 0
  %mouse_grabbed1 = getelementptr inbounds %struct.HIDMouseState, ptr %6, i32 0, i32 1
  store i32 1, ptr %mouse_grabbed1, align 8
  br label %if.end

if.end:                                           ; preds = %if.then, %entry
  ret void
}

; Function Attrs: nounwind sspstrong uwtable
define dso_local i32 @hid_pointer_poll(ptr noundef %hs, ptr noundef %buf, i32 noundef %len) #0 {
entry:
  %hs.addr = alloca ptr, align 8
  %buf.addr = alloca ptr, align 8
  %len.addr = alloca i32, align 4
  %dx = alloca i32, align 4
  %dy = alloca i32, align 4
  %dz = alloca i32, align 4
  %l = alloca i32, align 4
  %index = alloca i32, align 4
  %e = alloca ptr, align 8
  store ptr %hs, ptr %hs.addr, align 8
  store ptr %buf, ptr %buf.addr, align 8
  store i32 %len, ptr %len.addr, align 4
  %0 = load ptr, ptr %hs.addr, align 8
  %idle_pending = getelementptr inbounds %struct.HIDState, ptr %0, i32 0, i32 6
  store i8 0, ptr %idle_pending, align 1
  %1 = load ptr, ptr %hs.addr, align 8
  call void @hid_pointer_activate(ptr noundef %1)
  %2 = load ptr, ptr %hs.addr, align 8
  %n = getelementptr inbounds %struct.HIDState, ptr %2, i32 0, i32 2
  %3 = load i32, ptr %n, align 8
  %tobool = icmp ne i32 %3, 0
  br i1 %tobool, label %cond.true, label %cond.false

cond.true:                                        ; preds = %entry
  %4 = load ptr, ptr %hs.addr, align 8
  %head = getelementptr inbounds %struct.HIDState, ptr %4, i32 0, i32 1
  %5 = load i32, ptr %head, align 4
  br label %cond.end

cond.false:                                       ; preds = %entry
  %6 = load ptr, ptr %hs.addr, align 8
  %head1 = getelementptr inbounds %struct.HIDState, ptr %6, i32 0, i32 1
  %7 = load i32, ptr %head1, align 4
  %sub = sub i32 %7, 1
  br label %cond.end

cond.end:                                         ; preds = %cond.false, %cond.true
  %cond = phi i32 [ %5, %cond.true ], [ %sub, %cond.false ]
  store i32 %cond, ptr %index, align 4
  %8 = load ptr, ptr %hs.addr, align 8
  %9 = getelementptr inbounds %struct.HIDState, ptr %8, i32 0, i32 0
  %queue = getelementptr inbounds %struct.HIDMouseState, ptr %9, i32 0, i32 0
  %10 = load i32, ptr %index, align 4
  %and = and i32 %10, 15
  %idxprom = zext i32 %and to i64
  %arrayidx = getelementptr [16 x %struct.HIDPointerEvent], ptr %queue, i64 0, i64 %idxprom
  store ptr %arrayidx, ptr %e, align 8
  %11 = load ptr, ptr %hs.addr, align 8
  %kind = getelementptr inbounds %struct.HIDState, ptr %11, i32 0, i32 3
  %12 = load i32, ptr %kind, align 4
  %cmp = icmp eq i32 %12, 1
  br i1 %cmp, label %if.then, label %if.else

if.then:                                          ; preds = %cond.end
  %13 = load ptr, ptr %e, align 8
  %xdx = getelementptr inbounds %struct.HIDPointerEvent, ptr %13, i32 0, i32 0
  %14 = load i32, ptr %xdx, align 4
  %call = call i32 @int_clamp(i32 noundef %14, i32 noundef -127, i32 noundef 127)
  store i32 %call, ptr %dx, align 4
  %15 = load ptr, ptr %e, align 8
  %ydy = getelementptr inbounds %struct.HIDPointerEvent, ptr %15, i32 0, i32 1
  %16 = load i32, ptr %ydy, align 4
  %call2 = call i32 @int_clamp(i32 noundef %16, i32 noundef -127, i32 noundef 127)
  store i32 %call2, ptr %dy, align 4
  %17 = load i32, ptr %dx, align 4
  %18 = load ptr, ptr %e, align 8
  %xdx3 = getelementptr inbounds %struct.HIDPointerEvent, ptr %18, i32 0, i32 0
  %19 = load i32, ptr %xdx3, align 4
  %sub4 = sub i32 %19, %17
  store i32 %sub4, ptr %xdx3, align 4
  %20 = load i32, ptr %dy, align 4
  %21 = load ptr, ptr %e, align 8
  %ydy5 = getelementptr inbounds %struct.HIDPointerEvent, ptr %21, i32 0, i32 1
  %22 = load i32, ptr %ydy5, align 4
  %sub6 = sub i32 %22, %20
  store i32 %sub6, ptr %ydy5, align 4
  br label %if.end

if.else:                                          ; preds = %cond.end
  %23 = load ptr, ptr %e, align 8
  %xdx7 = getelementptr inbounds %struct.HIDPointerEvent, ptr %23, i32 0, i32 0
  %24 = load i32, ptr %xdx7, align 4
  store i32 %24, ptr %dx, align 4
  %25 = load ptr, ptr %e, align 8
  %ydy8 = getelementptr inbounds %struct.HIDPointerEvent, ptr %25, i32 0, i32 1
  %26 = load i32, ptr %ydy8, align 4
  store i32 %26, ptr %dy, align 4
  br label %if.end

if.end:                                           ; preds = %if.else, %if.then
  %27 = load ptr, ptr %e, align 8
  %dz9 = getelementptr inbounds %struct.HIDPointerEvent, ptr %27, i32 0, i32 2
  %28 = load i32, ptr %dz9, align 4
  %call10 = call i32 @int_clamp(i32 noundef %28, i32 noundef -127, i32 noundef 127)
  store i32 %call10, ptr %dz, align 4
  %29 = load i32, ptr %dz, align 4
  %30 = load ptr, ptr %e, align 8
  %dz11 = getelementptr inbounds %struct.HIDPointerEvent, ptr %30, i32 0, i32 2
  %31 = load i32, ptr %dz11, align 4
  %sub12 = sub i32 %31, %29
  store i32 %sub12, ptr %dz11, align 4
  %32 = load ptr, ptr %hs.addr, align 8
  %n13 = getelementptr inbounds %struct.HIDState, ptr %32, i32 0, i32 2
  %33 = load i32, ptr %n13, align 8
  %tobool14 = icmp ne i32 %33, 0
  br i1 %tobool14, label %land.lhs.true, label %if.end30

land.lhs.true:                                    ; preds = %if.end
  %34 = load ptr, ptr %e, align 8
  %dz15 = getelementptr inbounds %struct.HIDPointerEvent, ptr %34, i32 0, i32 2
  %35 = load i32, ptr %dz15, align 4
  %tobool16 = icmp ne i32 %35, 0
  br i1 %tobool16, label %if.end30, label %land.lhs.true17

land.lhs.true17:                                  ; preds = %land.lhs.true
  %36 = load ptr, ptr %hs.addr, align 8
  %kind18 = getelementptr inbounds %struct.HIDState, ptr %36, i32 0, i32 3
  %37 = load i32, ptr %kind18, align 4
  %cmp19 = icmp eq i32 %37, 2
  br i1 %cmp19, label %if.then25, label %lor.lhs.false

lor.lhs.false:                                    ; preds = %land.lhs.true17
  %38 = load ptr, ptr %e, align 8
  %xdx20 = getelementptr inbounds %struct.HIDPointerEvent, ptr %38, i32 0, i32 0
  %39 = load i32, ptr %xdx20, align 4
  %tobool21 = icmp ne i32 %39, 0
  br i1 %tobool21, label %if.end30, label %land.lhs.true22

land.lhs.true22:                                  ; preds = %lor.lhs.false
  %40 = load ptr, ptr %e, align 8
  %ydy23 = getelementptr inbounds %struct.HIDPointerEvent, ptr %40, i32 0, i32 1
  %41 = load i32, ptr %ydy23, align 4
  %tobool24 = icmp ne i32 %41, 0
  br i1 %tobool24, label %if.end30, label %if.then25

if.then25:                                        ; preds = %land.lhs.true22, %land.lhs.true17
  %42 = load ptr, ptr %hs.addr, align 8
  %head26 = getelementptr inbounds %struct.HIDState, ptr %42, i32 0, i32 1
  %43 = load i32, ptr %head26, align 4
  %inc = add i32 %43, 1
  store i32 %inc, ptr %head26, align 4
  %44 = load ptr, ptr %hs.addr, align 8
  %head27 = getelementptr inbounds %struct.HIDState, ptr %44, i32 0, i32 1
  %45 = load i32, ptr %head27, align 4
  %and28 = and i32 %45, 15
  store i32 %and28, ptr %head27, align 4
  %46 = load ptr, ptr %hs.addr, align 8
  %n29 = getelementptr inbounds %struct.HIDState, ptr %46, i32 0, i32 2
  %47 = load i32, ptr %n29, align 8
  %dec = add i32 %47, -1
  store i32 %dec, ptr %n29, align 8
  br label %if.end30

if.end30:                                         ; preds = %if.then25, %land.lhs.true22, %lor.lhs.false, %land.lhs.true, %if.end
  %48 = load i32, ptr %dz, align 4
  %sub31 = sub i32 0, %48
  store i32 %sub31, ptr %dz, align 4
  store i32 0, ptr %l, align 4
  %49 = load ptr, ptr %hs.addr, align 8
  %kind32 = getelementptr inbounds %struct.HIDState, ptr %49, i32 0, i32 3
  %50 = load i32, ptr %kind32, align 4
  switch i32 %50, label %sw.default [
    i32 1, label %sw.bb
    i32 2, label %sw.bb63
  ]

sw.bb:                                            ; preds = %if.end30
  %51 = load i32, ptr %len.addr, align 4
  %52 = load i32, ptr %l, align 4
  %cmp33 = icmp sgt i32 %51, %52
  br i1 %cmp33, label %if.then34, label %if.end38

if.then34:                                        ; preds = %sw.bb
  %53 = load ptr, ptr %e, align 8
  %buttons_state = getelementptr inbounds %struct.HIDPointerEvent, ptr %53, i32 0, i32 3
  %54 = load i32, ptr %buttons_state, align 4
  %conv = trunc i32 %54 to i8
  %55 = load ptr, ptr %buf.addr, align 8
  %56 = load i32, ptr %l, align 4
  %inc35 = add i32 %56, 1
  store i32 %inc35, ptr %l, align 4
  %idxprom36 = sext i32 %56 to i64
  %arrayidx37 = getelementptr i8, ptr %55, i64 %idxprom36
  store i8 %conv, ptr %arrayidx37, align 1
  br label %if.end38

if.end38:                                         ; preds = %if.then34, %sw.bb
  %57 = load i32, ptr %len.addr, align 4
  %58 = load i32, ptr %l, align 4
  %cmp39 = icmp sgt i32 %57, %58
  br i1 %cmp39, label %if.then41, label %if.end46

if.then41:                                        ; preds = %if.end38
  %59 = load i32, ptr %dx, align 4
  %conv42 = trunc i32 %59 to i8
  %60 = load ptr, ptr %buf.addr, align 8
  %61 = load i32, ptr %l, align 4
  %inc43 = add i32 %61, 1
  store i32 %inc43, ptr %l, align 4
  %idxprom44 = sext i32 %61 to i64
  %arrayidx45 = getelementptr i8, ptr %60, i64 %idxprom44
  store i8 %conv42, ptr %arrayidx45, align 1
  br label %if.end46

if.end46:                                         ; preds = %if.then41, %if.end38
  %62 = load i32, ptr %len.addr, align 4
  %63 = load i32, ptr %l, align 4
  %cmp47 = icmp sgt i32 %62, %63
  br i1 %cmp47, label %if.then49, label %if.end54

if.then49:                                        ; preds = %if.end46
  %64 = load i32, ptr %dy, align 4
  %conv50 = trunc i32 %64 to i8
  %65 = load ptr, ptr %buf.addr, align 8
  %66 = load i32, ptr %l, align 4
  %inc51 = add i32 %66, 1
  store i32 %inc51, ptr %l, align 4
  %idxprom52 = sext i32 %66 to i64
  %arrayidx53 = getelementptr i8, ptr %65, i64 %idxprom52
  store i8 %conv50, ptr %arrayidx53, align 1
  br label %if.end54

if.end54:                                         ; preds = %if.then49, %if.end46
  %67 = load i32, ptr %len.addr, align 4
  %68 = load i32, ptr %l, align 4
  %cmp55 = icmp sgt i32 %67, %68
  br i1 %cmp55, label %if.then57, label %if.end62

if.then57:                                        ; preds = %if.end54
  %69 = load i32, ptr %dz, align 4
  %conv58 = trunc i32 %69 to i8
  %70 = load ptr, ptr %buf.addr, align 8
  %71 = load i32, ptr %l, align 4
  %inc59 = add i32 %71, 1
  store i32 %inc59, ptr %l, align 4
  %idxprom60 = sext i32 %71 to i64
  %arrayidx61 = getelementptr i8, ptr %70, i64 %idxprom60
  store i8 %conv58, ptr %arrayidx61, align 1
  br label %if.end62

if.end62:                                         ; preds = %if.then57, %if.end54
  br label %sw.epilog

sw.bb63:                                          ; preds = %if.end30
  %72 = load i32, ptr %len.addr, align 4
  %73 = load i32, ptr %l, align 4
  %cmp64 = icmp sgt i32 %72, %73
  br i1 %cmp64, label %if.then66, label %if.end72

if.then66:                                        ; preds = %sw.bb63
  %74 = load ptr, ptr %e, align 8
  %buttons_state67 = getelementptr inbounds %struct.HIDPointerEvent, ptr %74, i32 0, i32 3
  %75 = load i32, ptr %buttons_state67, align 4
  %conv68 = trunc i32 %75 to i8
  %76 = load ptr, ptr %buf.addr, align 8
  %77 = load i32, ptr %l, align 4
  %inc69 = add i32 %77, 1
  store i32 %inc69, ptr %l, align 4
  %idxprom70 = sext i32 %77 to i64
  %arrayidx71 = getelementptr i8, ptr %76, i64 %idxprom70
  store i8 %conv68, ptr %arrayidx71, align 1
  br label %if.end72

if.end72:                                         ; preds = %if.then66, %sw.bb63
  %78 = load i32, ptr %len.addr, align 4
  %79 = load i32, ptr %l, align 4
  %cmp73 = icmp sgt i32 %78, %79
  br i1 %cmp73, label %if.then75, label %if.end81

if.then75:                                        ; preds = %if.end72
  %80 = load i32, ptr %dx, align 4
  %and76 = and i32 %80, 255
  %conv77 = trunc i32 %and76 to i8
  %81 = load ptr, ptr %buf.addr, align 8
  %82 = load i32, ptr %l, align 4
  %inc78 = add i32 %82, 1
  store i32 %inc78, ptr %l, align 4
  %idxprom79 = sext i32 %82 to i64
  %arrayidx80 = getelementptr i8, ptr %81, i64 %idxprom79
  store i8 %conv77, ptr %arrayidx80, align 1
  br label %if.end81

if.end81:                                         ; preds = %if.then75, %if.end72
  %83 = load i32, ptr %len.addr, align 4
  %84 = load i32, ptr %l, align 4
  %cmp82 = icmp sgt i32 %83, %84
  br i1 %cmp82, label %if.then84, label %if.end89

if.then84:                                        ; preds = %if.end81
  %85 = load i32, ptr %dx, align 4
  %shr = ashr i32 %85, 8
  %conv85 = trunc i32 %shr to i8
  %86 = load ptr, ptr %buf.addr, align 8
  %87 = load i32, ptr %l, align 4
  %inc86 = add i32 %87, 1
  store i32 %inc86, ptr %l, align 4
  %idxprom87 = sext i32 %87 to i64
  %arrayidx88 = getelementptr i8, ptr %86, i64 %idxprom87
  store i8 %conv85, ptr %arrayidx88, align 1
  br label %if.end89

if.end89:                                         ; preds = %if.then84, %if.end81
  %88 = load i32, ptr %len.addr, align 4
  %89 = load i32, ptr %l, align 4
  %cmp90 = icmp sgt i32 %88, %89
  br i1 %cmp90, label %if.then92, label %if.end98

if.then92:                                        ; preds = %if.end89
  %90 = load i32, ptr %dy, align 4
  %and93 = and i32 %90, 255
  %conv94 = trunc i32 %and93 to i8
  %91 = load ptr, ptr %buf.addr, align 8
  %92 = load i32, ptr %l, align 4
  %inc95 = add i32 %92, 1
  store i32 %inc95, ptr %l, align 4
  %idxprom96 = sext i32 %92 to i64
  %arrayidx97 = getelementptr i8, ptr %91, i64 %idxprom96
  store i8 %conv94, ptr %arrayidx97, align 1
  br label %if.end98

if.end98:                                         ; preds = %if.then92, %if.end89
  %93 = load i32, ptr %len.addr, align 4
  %94 = load i32, ptr %l, align 4
  %cmp99 = icmp sgt i32 %93, %94
  br i1 %cmp99, label %if.then101, label %if.end107

if.then101:                                       ; preds = %if.end98
  %95 = load i32, ptr %dy, align 4
  %shr102 = ashr i32 %95, 8
  %conv103 = trunc i32 %shr102 to i8
  %96 = load ptr, ptr %buf.addr, align 8
  %97 = load i32, ptr %l, align 4
  %inc104 = add i32 %97, 1
  store i32 %inc104, ptr %l, align 4
  %idxprom105 = sext i32 %97 to i64
  %arrayidx106 = getelementptr i8, ptr %96, i64 %idxprom105
  store i8 %conv103, ptr %arrayidx106, align 1
  br label %if.end107

if.end107:                                        ; preds = %if.then101, %if.end98
  %98 = load i32, ptr %len.addr, align 4
  %99 = load i32, ptr %l, align 4
  %cmp108 = icmp sgt i32 %98, %99
  br i1 %cmp108, label %if.then110, label %if.end115

if.then110:                                       ; preds = %if.end107
  %100 = load i32, ptr %dz, align 4
  %conv111 = trunc i32 %100 to i8
  %101 = load ptr, ptr %buf.addr, align 8
  %102 = load i32, ptr %l, align 4
  %inc112 = add i32 %102, 1
  store i32 %inc112, ptr %l, align 4
  %idxprom113 = sext i32 %102 to i64
  %arrayidx114 = getelementptr i8, ptr %101, i64 %idxprom113
  store i8 %conv111, ptr %arrayidx114, align 1
  br label %if.end115

if.end115:                                        ; preds = %if.then110, %if.end107
  br label %sw.epilog

sw.default:                                       ; preds = %if.end30
  call void @abort() #7
  unreachable

sw.epilog:                                        ; preds = %if.end115, %if.end62
  %103 = load i32, ptr %l, align 4
  ret i32 %103
}