; Function Attrs: nounwind sspstrong uwtable
define dso_local range(i32 0, 7) i32 @hid_pointer_poll(ptr noundef captures(none) initializes((277, 278)) %hs, ptr noundef writeonly captures(none) %buf, i32 noundef %len) local_unnamed_addr #1 {
entry:
  %idle_pending = getelementptr inbounds nuw i8, ptr %hs, i64 277
  store i8 0, ptr %idle_pending, align 1
  %mouse_grabbed.i = getelementptr inbounds nuw i8, ptr %hs, i64 256
  %0 = load i32, ptr %mouse_grabbed.i, align 8
  %tobool.not.i = icmp eq i32 %0, 0
  br i1 %tobool.not.i, label %if.then.i, label %hid_pointer_activate.exit

if.then.i:                                        ; preds = %entry
  %s.i = getelementptr inbounds nuw i8, ptr %hs, i64 296
  %1 = load ptr, ptr %s.i, align 8
  tail call void @qemu_input_handler_activate(ptr noundef %1) #11
  store i32 1, ptr %mouse_grabbed.i, align 8
  br label %hid_pointer_activate.exit

hid_pointer_activate.exit:                        ; preds = %entry, %if.then.i
  %n = getelementptr inbounds nuw i8, ptr %hs, i64 264
  %2 = load i32, ptr %n, align 8
  %tobool.not = icmp eq i32 %2, 0
  %head1 = getelementptr inbounds nuw i8, ptr %hs, i64 260
  %3 = load i32, ptr %head1, align 4
  %sub = sext i1 %tobool.not to i32
  %cond = add i32 %3, %sub
  %and = and i32 %cond, 15
  %idxprom = zext nneg i32 %and to i64
  %arrayidx = getelementptr [16 x %struct.HIDPointerEvent], ptr %hs, i64 0, i64 %idxprom
  %kind = getelementptr inbounds nuw i8, ptr %hs, i64 268
  %4 = load i32, ptr %kind, align 4
  %cmp = icmp eq i32 %4, 1
  %5 = load i32, ptr %arrayidx, align 4
  br i1 %cmp, label %if.then, label %if.else

if.then:                                          ; preds = %hid_pointer_activate.exit
  %.val.i = tail call i32 @llvm.smin.i32(i32 %5, i32 127)
  %retval.0.i = tail call range(i32 -127, 128) i32 @llvm.smax.i32(i32 %.val.i, i32 -127)
  %ydy = getelementptr inbounds nuw i8, ptr %arrayidx, i64 4
  %6 = load i32, ptr %ydy, align 4
  %.val.i72 = tail call i32 @llvm.smin.i32(i32 %6, i32 127)
  %retval.0.i73 = tail call range(i32 -127, 128) i32 @llvm.smax.i32(i32 %.val.i72, i32 -127)
  %sub4 = sub i32 %5, %retval.0.i
  store i32 %sub4, ptr %arrayidx, align 4
  %sub6 = sub i32 %6, %retval.0.i73
  store i32 %sub6, ptr %ydy, align 4
  br label %if.end

if.else:                                          ; preds = %hid_pointer_activate.exit
  %ydy8 = getelementptr inbounds nuw i8, ptr %arrayidx, i64 4
  %7 = load i32, ptr %ydy8, align 4
  br label %if.end

if.end:                                           ; preds = %if.else, %if.then
  %8 = phi i32 [ %sub6, %if.then ], [ %7, %if.else ]
  %9 = phi i32 [ %sub4, %if.then ], [ %5, %if.else ]
  %dy.0 = phi i32 [ %retval.0.i73, %if.then ], [ %7, %if.else ]
  %dx.0 = phi i32 [ %retval.0.i, %if.then ], [ %5, %if.else ]
  %dz9 = getelementptr inbounds nuw i8, ptr %arrayidx, i64 8
  %10 = load i32, ptr %dz9, align 4
  %.val.i74 = tail call i32 @llvm.smin.i32(i32 %10, i32 127)
  %retval.0.i75 = tail call range(i32 -127, 128) i32 @llvm.smax.i32(i32 %.val.i74, i32 -127)
  %sub12 = sub i32 %10, %retval.0.i75
  store i32 %sub12, ptr %dz9, align 4
  %tobool14.not = icmp ne i32 %2, 0
  %tobool16.not = icmp eq i32 %10, %retval.0.i75
  %or.cond = select i1 %tobool14.not, i1 %tobool16.not, i1 false
  br i1 %or.cond, label %land.lhs.true17, label %if.end30

land.lhs.true17:                                  ; preds = %if.end
  %cmp19 = icmp eq i32 %4, 2
  br i1 %cmp19, label %if.then25, label %lor.lhs.false

lor.lhs.false:                                    ; preds = %land.lhs.true17
  %tobool21.not = icmp eq i32 %9, 0
  %tobool24.not = icmp eq i32 %8, 0
  %or.cond100 = select i1 %tobool21.not, i1 %tobool24.not, i1 false
  br i1 %or.cond100, label %if.then25, label %if.end30

if.then25:                                        ; preds = %lor.lhs.false, %land.lhs.true17
  %head26 = getelementptr inbounds nuw i8, ptr %hs, i64 260
  %inc = add i32 %3, 1
  %and28 = and i32 %inc, 15
  store i32 %and28, ptr %head26, align 4
  %dec = add i32 %2, -1
  store i32 %dec, ptr %n, align 8
  br label %if.end30

if.end30:                                         ; preds = %if.then25, %lor.lhs.false, %if.end
  switch i32 %4, label %sw.default [
    i32 1, label %sw.bb
    i32 2, label %sw.bb63
  ]

sw.bb:                                            ; preds = %if.end30
  %cmp33 = icmp sgt i32 %len, 0
  br i1 %cmp33, label %if.end38, label %sw.epilog

if.end38:                                         ; preds = %sw.bb
  %buttons_state = getelementptr inbounds nuw i8, ptr %arrayidx, i64 12
  %11 = load i32, ptr %buttons_state, align 4
  %conv = trunc i32 %11 to i8
  store i8 %conv, ptr %buf, align 1
  %cmp39.not = icmp eq i32 %len, 1
  br i1 %cmp39.not, label %sw.epilog, label %if.end46

if.end46:                                         ; preds = %if.end38
  %conv42 = trunc i32 %dx.0 to i8
  %arrayidx45 = getelementptr i8, ptr %buf, i64 1
  store i8 %conv42, ptr %arrayidx45, align 1
  %cmp47 = icmp samesign ugt i32 %len, 2
  br i1 %cmp47, label %if.end54, label %sw.epilog

if.end54:                                         ; preds = %if.end46
  %conv50 = trunc i32 %dy.0 to i8
  %arrayidx53 = getelementptr i8, ptr %buf, i64 2
  store i8 %conv50, ptr %arrayidx53, align 1
  %cmp55.not = icmp eq i32 %len, 3
  br i1 %cmp55.not, label %sw.epilog, label %sw.epilog.sink.split

sw.bb63:                                          ; preds = %if.end30
  %cmp64 = icmp sgt i32 %len, 0
  br i1 %cmp64, label %if.end72, label %sw.epilog

if.end72:                                         ; preds = %sw.bb63
  %buttons_state67 = getelementptr inbounds nuw i8, ptr %arrayidx, i64 12
  %12 = load i32, ptr %buttons_state67, align 4
  %conv68 = trunc i32 %12 to i8
  store i8 %conv68, ptr %buf, align 1
  %cmp73.not = icmp eq i32 %len, 1
  br i1 %cmp73.not, label %sw.epilog, label %if.end81

if.end81:                                         ; preds = %if.end72
  %conv77 = trunc i32 %dx.0 to i8
  %arrayidx80 = getelementptr i8, ptr %buf, i64 1
  store i8 %conv77, ptr %arrayidx80, align 1
  %cmp82 = icmp samesign ugt i32 %len, 2
  br i1 %cmp82, label %if.end89, label %sw.epilog

if.end89:                                         ; preds = %if.end81
  %shr = lshr i32 %dx.0, 8
  %conv85 = trunc i32 %shr to i8
  %arrayidx88 = getelementptr i8, ptr %buf, i64 2
  store i8 %conv85, ptr %arrayidx88, align 1
  %cmp90.not = icmp eq i32 %len, 3
  br i1 %cmp90.not, label %sw.epilog, label %if.end98

if.end98:                                         ; preds = %if.end89
  %conv94 = trunc i32 %dy.0 to i8
  %arrayidx97 = getelementptr i8, ptr %buf, i64 3
  store i8 %conv94, ptr %arrayidx97, align 1
  %cmp99 = icmp samesign ugt i32 %len, 4
  br i1 %cmp99, label %if.then101, label %if.end107

if.then101:                                       ; preds = %if.end98
  %shr102 = lshr i32 %dy.0, 8
  %conv103 = trunc i32 %shr102 to i8
  %arrayidx106 = getelementptr i8, ptr %buf, i64 4
  store i8 %conv103, ptr %arrayidx106, align 1
  br label %if.end107

if.end107:                                        ; preds = %if.then101, %if.end98
  %l.8 = phi i32 [ 5, %if.then101 ], [ 4, %if.end98 ]
  %cmp108 = icmp samesign ugt i32 %len, %l.8
  br i1 %cmp108, label %if.then110, label %sw.epilog

if.then110:                                       ; preds = %if.end107
  %inc112 = add nuw nsw i32 %l.8, 1
  %13 = zext nneg i32 %l.8 to i64
  br label %sw.epilog.sink.split

sw.default:                                       ; preds = %if.end30
  tail call void @abort() #13
  unreachable

sw.epilog.sink.split:                             ; preds = %if.end54, %if.then110
  %l.8.sink = phi i64 [ %13, %if.then110 ], [ 3, %if.end54 ]
  %l.3.ph = phi i32 [ %inc112, %if.then110 ], [ 4, %if.end54 ]
  %14 = trunc nsw i32 %retval.0.i75 to i8
  %conv111.sink = sub i8 0, %14
  %arrayidx114 = getelementptr i8, ptr %buf, i64 %l.8.sink
  store i8 %conv111.sink, ptr %arrayidx114, align 1
  br label %sw.epilog

sw.epilog:                                        ; preds = %sw.epilog.sink.split, %if.end81, %if.end89, %if.end46, %sw.bb63, %if.end72, %sw.bb, %if.end38, %if.end107, %if.end54
  %l.3 = phi i32 [ %l.8, %if.end107 ], [ 3, %if.end54 ], [ 0, %sw.bb ], [ 1, %if.end38 ], [ 0, %sw.bb63 ], [ 1, %if.end72 ], [ 2, %if.end46 ], [ 2, %if.end81 ], [ 3, %if.end89 ], [ %l.3.ph, %sw.epilog.sink.split ]
  ret i32 %l.3
}